(iutilsFunctions
wordClass
p0
(dp1
S'text'
p2
S'FreeLander PD10 3G Pro MTK6577 8GB GPS 7 Inch Tablet PC HD Screen Android 4.0 Dual Core Monster Phone Dual Sim Card Bluetooth WCDMA Coffee'
p3
sS'score'
p4
F0.7971360381861575
sS'list'
p5
(lp6
I00
aI00
aI00
aI00
aI00
aI00
aI01
aI00
aI00
aI00
asS'word'
p7
S'PD10'
p8
sS'isItMyWord'
p9
I01
sb.(iutilsFunctions
wordClass
p0
(dp1
S'text'
p2
S'XIAOMI Redmi Note 2 5.5\xe2\x80\x9d IPS MediaTek helio X10 Octa-Core 2GHz Android 5.0 Lollipop 4G smartphone 16GB ROM 2GB RAM 13.0MP - Pink'
p3
sS'score'
p4
F0.050119331742243436
sS'list'
p5
(lp6
I00
aI00
aI00
aI00
aI00
aI00
aI00
aI00
aI00
aI00
asS'word'
p7
S'Redmi'
p8
sS'isItMyWord'
p9
I01
sb.(iutilsFunctions
wordClass
p0
(dp1
S'text'
p2
S'KingSing K2 MTK6572M, Dual-Core, 1.0GHz, 512M RAM+4G ROM, 4.3-inch WVGA Screen 800x480, 2.0MP Rear Camera, GPS, WIFI, FM, Bluetooth- Black'
p3
sS'score'
p4
F0.00954653937947494
sS'list'
p5
(lp6
I00
aI00
aI00
aI00
aI01
aI00
aI01
aI00
aI00
aI00
asS'word'
p7
S'K2'
p8
sS'isItMyWord'
p9
I01
sb.(iutilsFunctions
wordClass
p0
(dp1
S'text'
p2
S'Chuwi vi8 PLUS Intel X5 Cherry Trail Z8300 1.84GHz Quad Core 2GB RAM 32GB ROM 8 inch IPS screen Windows 10 Type C Tablet PC'
p3
sS'score'
p4
F0.016706443914081145
sS'list'
p5
(lp6
I00
aI00
aI00
aI00
aI00
aI00
aI01
aI01
aI00
aI00
asS'word'
p7
S'vi8'
p8
sS'isItMyWord'
p9
I01
sb.(iutilsFunctions
wordClass
p0
(dp1
S'text'
p2
S'ONEPLUS X Android 5.1 5.0 inch 4G Smartphone Qualcomm Snapdragon 801 Quad Core 2.3GHz 2GB RAM 16GB ROM 2.5D IPS Screen -BLACK'
p3
sS'score'
p4
F0.03818615751789976
sS'list'
p5
(lp6
I00
aI00
aI00
aI00
aI01
aI00
aI00
aI00
aI00
aI00
asS'word'
p7
S'X'
p8
sS'isItMyWord'
p9
I01
sb.(iutilsFunctions
wordClass
p0
(dp1
S'text'
p2
S'Huion 420 4000 LPI Portable Smart Stylus Digital Signature Tablet with 3 Express Keys -BLACK'
p3
sS'score'
p4
F0.00477326968973747
sS'list'
p5
(lp6
I00
aI00
aI01
aI00
aI00
aI01
aI01
aI00
aI00
aI00
asS'word'
p7
S'420'
p8
sS'isItMyWord'
p9
I01
sb.(iutilsFunctions
wordClass
p0
(dp1
S'text'
p2
S'Happy Cow 777-173 i-Helicopter Apple iDevices Controlled 3-Channel R/C Helicopter w/Gyro'
p3
sS'score'
p4
F0.002386634844868735
sS'list'
p5
(lp6
I00
aI00
aI00
aI00
aI00
aI01
aI01
aI00
aI01
aI00
asS'word'
p7
S'777-173'
p8
sS'isItMyWord'
p9
I01
sb.(iutilsFunctions
wordClass
p0
(dp1
S'text'
p2
S'Sparta 101D Tablet PC 10.1 Inch IPS HD Screen RK3066 Android 4.0 32GB Silver'
p3
sS'score'
p4
F0.028639618138424822
sS'list'
p5
(lp6
I00
aI00
aI00
aI00
aI00
aI01
aI01
aI00
aI00
aI00
asS'word'
p7
S'101D'
p8
sS'isItMyWord'
p9
I01
sb.(iutilsFunctions
wordClass
p0
(dp1
S'text'
p2
S'XUNRUIXING XRX-003 E27 3W 250lm 3000K 3-LED Warm White Light Bulb - White + Silver (AC 85~265V)'
p3
sS'score'
p4
F0.0477326968973747
sS'list'
p5
(lp6
I00
aI00
aI00
aI00
aI00
aI00
aI01
aI00
aI01
aI00
asS'word'
p7
S'XRX-003'
p8
sS'isItMyWord'
p9
I01
sb.(iutilsFunctions
wordClass
p0
(dp1
S'text'
p2
S'ThiEYE i30 1080P WiFi 3MP 155 Degree Wide Angle Action Camera Car DVR with 1.5 inch TFT Screen'
p3
sS'score'
p4
F0.002386634844868735
sS'list'
p5
(lp6
I00
aI00
aI01
aI00
aI00
aI00
aI01
aI00
aI00
aI00
asS'word'
p7
S'i30'
p8
sS'isItMyWord'
p9
I01
sb.(iutilsFunctions
wordClass
p0
(dp1
S'text'
p2
S'FIREFLY 6S 4K WiFi Sport HD DV Camera'
p3
sS'score'
p4
F0.002386634844868735
sS'list'
p5
(lp6
I00
aI00
aI00
aI00
aI01
aI01
aI01
aI00
aI00
aI00
asS'word'
p7
S'6S'
p8
sS'isItMyWord'
p9
I01
sb.